MPASM 5.54                 SEQUENCE_LEDS.ASM   7-17-2014  23:10:11         PAGE  1


LOC  OBJECT CODE     LINE SOURCE TEXT
  VALUE

                      00001 ; This program will sequences the leds on all the output GPIOs of the PIC12F629
                      00002 ; Copyright EJ Devices 2014
                      00003 ;
                      00004 
                      00005         list    p=12F629
                      00006         radix   dec
                      00007         include "p12f629.inc"
                      00001         LIST
                      00002 
                      00003 ;==========================================================================
                      00004 ;  MPASM PIC12F629 processor include
                      00005 ; 
                      00006 ;  (c) Copyright 1999-2013 Microchip Technology, All rights reserved
                      00007 ;==========================================================================
                      00008 
                      00338         LIST
                      00008 
                      00009 ; Use all the PGIO pins by disabling the reset pin and using the internal oscillator
2007   3FD4           00010         __CONFIG        _MCLRE_OFF & _CP_OFF & _WDT_OFF & _INTRC_OSC_NOCLKOUT 
                      00011 
                      00012         
                      00013 ; globals
  00000026            00014 _delayA         equ     26h
  00000027            00015 _delayB         equ     27h
  00000028            00016 _delayC         equ     28h
                      00017 
                      00018 ; GPIO bits     
  00000000            00019 GP0             equ     0       ;GP0  output to LED
  00000001            00020 GP1             equ     1       ;GP1
  00000002            00021 GP2             equ     2       ;GP2
  00000003            00022 GP3             equ     3       ;GP3
  00000004            00023 GP4             equ     4       ;GP4
  00000005            00024 GP5             equ     5       ;GP5
                      00025                 
                      00026 
                      00027 ; Start the program at offset 0
                      00028 Start   org     0x0000          
                      00029 
                      00030                 
0000                  00031 SetUp   
0000   1283           00032     bcf     STATUS, RP0 ;bank 0
0001   0185           00033     clrf        GPIO            ;Clear GPIO of junk
0002   3007           00034         movlw   0x07
0003   0099           00035     movwf   CMCON       ;comparator off =111
0004   1683           00036     bsf     STATUS, RP0 ;Bank 1
0005   3008           00037     movlw       b'00001000'     ;Set GP0,1,2,4,5 as output, note that for the PIC12F629 GP3 is input onl
                            y
Message[302]: Register in operand not in bank 0.  Ensure that bank bits are correct.
0006   0085           00038         movwf   TRISIO
                      00039                 
0007   3086           00040     movlw       b'10000110'     ;Turn off T0CKI, prescale for TMR0 = 1:128
Message[302]: Register in operand not in bank 0.  Ensure that bank bits are correct.
0008   0081           00041         movwf   OPTION_REG
MPASM 5.54                 SEQUENCE_LEDS.ASM   7-17-2014  23:10:11         PAGE  2


LOC  OBJECT CODE     LINE SOURCE TEXT
  VALUE

                      00042 
                      00043 
                      00044     ;calibrating the internal oscillator
0009   23FF           00045         call    0x3ff           ;get the calibration value
Message[302]: Register in operand not in bank 0.  Ensure that bank bits are correct.
000A   0090           00046         movwf   OSCCAL          ;calibrate oscillator
000B   1283           00047         bcf     STATUS, RP0     ;bank 0
                      00048 
                      00049     ; intialise delay register files
000C   01A6           00050     clrf    _delayA
000D   01A7           00051     clrf    _delayB
000E   01A8           00052     clrf    _delayC
                      00053 
                      00054         ; sequence the LED's turning them off and on with a delay in between
000F                  00055 LED
000F   1405           00056         bsf     GPIO,GP0                ;turn on LED1
0010   2???           00057         call    Delay
0011   1005           00058         bcf     GPIO,GP0                ;turn off LED1
0012   1485           00059     bsf     GPIO,GP1        ;turn on LED2
0013   2???           00060         call    Delay
0014   1085           00061     bcf     GPIO,GP1            ;turn off LED2
0015   1505           00062     bsf     GPIO,GP2        ;turn on LED3
0016   2???           00063         call    Delay
0017   1105           00064     bcf     GPIO,GP2            ;turn off LED3
0018   1605           00065     bsf     GPIO,GP4        ;turn on LED4
0019   2???           00066         call    Delay
001A   1205           00067     bcf     GPIO,GP4            ;turn off LED4
001B   1685           00068     bsf     GPIO,GP5        ;turn on LED5
001C   2???           00069         call    Delay
001D   1285           00070     bcf     GPIO,GP5        ;turn off LED5
001E   1605           00071     bsf     GPIO,GP4        ;turn on LED4
001F   2???           00072         call    Delay
0020   1205           00073     bcf     GPIO,GP4        ;turn off LED4
0021   1505           00074     bsf     GPIO,GP2        ;turn on LED3
0022   2???           00075         call    Delay
0023   1105           00076     bcf     GPIO,GP2        ;turn off LED3
0024   1485           00077     bsf     GPIO,GP1        ;turn on LED2
0025   2???           00078         call    Delay
0026   1085           00079     bcf     GPIO,GP1        ;turn off LED2
0027   2???           00080         goto    LED
                      00081 
                      00082         
                      00083         
                      00084         ;delay a period
0028                  00085 Delay
0028   3001           00086     movlw   01h
0029   00A8           00087         movwf   _delayC
002A                  00088 Delay_loop
002A   0BA6           00089         decfsz  _delayA, 1
002B   2???           00090         goto    Delay_loop
002C   0BA7           00091         decfsz  _delayB, 1
002D   2???           00092         goto    Delay_loop
002E   0BA8           00093         decfsz  _delayC, 1
MPASM 5.54                 SEQUENCE_LEDS.ASM   7-17-2014  23:10:11         PAGE  3


LOC  OBJECT CODE     LINE SOURCE TEXT
  VALUE

002F   2???           00094         goto    Delay_loop
0030   0008           00095         return
                      00096                 
                      00097         
                      00098 
                      00099                 
                      00100     ; internal oscillator calibration
                      00101     ; A good PIC programmer will ignore this instruction and not program the device with it
                      00102     ; The PIC12F629 comes preprogrammed with the oscillator calibration value at address 0x3FF
                      00103     ; This value should not be overwritten. 
                      00104     ; The return value of 0x20 is nominal and will vary depending on the device
                      00105         org     0x3ff
03FF   3420           00106         retlw   0x20
                      00107                 
                      00108     ; all assembly files end with 'end' to tell the compiler that the end of the file has been reached
3FD4                  00109         end
MPASM 5.54                 SEQUENCE_LEDS.ASM   7-17-2014  23:10:11         PAGE  4


SYMBOL TABLE
  LABEL                             VALUE 

ADIE                              00000006
ADIF                              00000006
C                                 00000000
CAL0                              00000002
CAL1                              00000003
CAL2                              00000004
CAL3                              00000005
CAL4                              00000006
CAL5                              00000007
CINV                              00000004
CIS                               00000003
CM0                               00000000
CM1                               00000001
CM2                               00000002
CMCON                             00000019
CMIE                              00000003
CMIF                              00000003
COUT                              00000006
DC                                00000001
Delay                             00000028
Delay_loop                        0000002A
EEADR                             0000009B
EECON1                            0000009C
EECON2                            0000009D
EEDAT                             0000009A
EEDATA                            0000009A
EEIE                              00000007
EEIF                              00000007
F                                 00000001
FSR                               00000004
GIE                               00000007
GP0                               00000000
GP1                               00000001
GP2                               00000002
GP3                               00000003
GP4                               00000004
GP5                               00000005
GPIE                              00000003
GPIF                              00000000
GPIO                              00000005
GPIO0                             00000000
GPIO1                             00000001
GPIO2                             00000002
GPIO3                             00000003
GPIO4                             00000004
GPIO5                             00000005
INDF                              00000000
INTCON                            0000000B
INTE                              00000004
INTEDG                            00000006
INTF                              00000001
IOC                               00000096
IOC0                              00000000
MPASM 5.54                 SEQUENCE_LEDS.ASM   7-17-2014  23:10:11         PAGE  5


SYMBOL TABLE
  LABEL                             VALUE 

IOC1                              00000001
IOC2                              00000002
IOC3                              00000003
IOC4                              00000004
IOC5                              00000005
IOCB                              00000096
IOCB0                             00000000
IOCB1                             00000001
IOCB2                             00000002
IOCB3                             00000003
IOCB4                             00000004
IOCB5                             00000005
IRP                               00000007
LED                               0000000F
NOT_BOD                           00000000
NOT_BOR                           00000000
NOT_GPPU                          00000007
NOT_PD                            00000003
NOT_POR                           00000001
NOT_T1SYNC                        00000002
NOT_TO                            00000004
OPTION_REG                        00000081
OSCCAL                            00000090
PCL                               00000002
PCLATH                            0000000A
PCON                              0000008E
PEIE                              00000006
PIE1                              0000008C
PIR1                              0000000C
PS0                               00000000
PS1                               00000001
PS2                               00000002
PSA                               00000003
RD                                00000000
RP0                               00000005
RP1                               00000006
STATUS                            00000003
SetUp                             00000000
Start                             00000000
T0CS                              00000005
T0IE                              00000005
T0IF                              00000002
T0SE                              00000004
T1CKPS0                           00000004
T1CKPS1                           00000005
T1CON                             00000010
T1IE                              00000000
T1IF                              00000000
T1OSCEN                           00000003
TMR0                              00000001
TMR0IE                            00000005
TMR0IF                            00000002
TMR1                              0000000E
MPASM 5.54                 SEQUENCE_LEDS.ASM   7-17-2014  23:10:11         PAGE  6


SYMBOL TABLE
  LABEL                             VALUE 

TMR1CS                            00000001
TMR1GE                            00000006
TMR1H                             0000000F
TMR1IE                            00000000
TMR1IF                            00000000
TMR1L                             0000000E
TMR1ON                            00000000
TRISIO                            00000085
TRISIO0                           00000000
TRISIO1                           00000001
TRISIO2                           00000002
TRISIO3                           00000003
TRISIO4                           00000004
TRISIO5                           00000005
VR0                               00000000
VR1                               00000001
VR2                               00000002
VR3                               00000003
VRCON                             00000099
VREN                              00000007
VRR                               00000005
W                                 00000000
WPU                               00000095
WPU0                              00000000
WPU1                              00000001
WPU2                              00000002
WPU4                              00000004
WPU5                              00000005
WR                                00000001
WREN                              00000002
WRERR                             00000003
Z                                 00000002
_BODEN_OFF                        00003FBF
_BODEN_ON                         00003FFF
_BOREN_OFF                        00003FBF
_BOREN_ON                         00003FFF
_CONFIG                           00002007
_CPD_OFF                          00003FFF
_CPD_ON                           00003EFF
_CP_OFF                           00003FFF
_CP_ON                            00003F7F
_DEVID1                           00002006
_EC_OSC                           00003FFB
_EXTRC_OSC_CLKOUT                 00003FFF
_EXTRC_OSC_NOCLKOUT               00003FFE
_FOSC_EC                          00003FFB
_FOSC_EXTRCCLK                    00003FFF
_FOSC_EXTRCIO                     00003FFE
_FOSC_HS                          00003FFA
_FOSC_INTRCCLK                    00003FFD
_FOSC_INTRCIO                     00003FFC
_FOSC_LP                          00003FF8
_FOSC_XT                          00003FF9
MPASM 5.54                 SEQUENCE_LEDS.ASM   7-17-2014  23:10:11         PAGE  7


SYMBOL TABLE
  LABEL                             VALUE 

_HS_OSC                           00003FFA
_IDLOC0                           00002000
_IDLOC1                           00002001
_IDLOC2                           00002002
_IDLOC3                           00002003
_INTRC_OSC_CLKOUT                 00003FFD
_INTRC_OSC_NOCLKOUT               00003FFC
_LP_OSC                           00003FF8
_MCLRE_OFF                        00003FDF
_MCLRE_ON                         00003FFF
_PWRTE_OFF                        00003FFF
_PWRTE_ON                         00003FEF
_WDTE_OFF                         00003FF7
_WDTE_ON                          00003FFF
_WDT_OFF                          00003FF7
_WDT_ON                           00003FFF
_XT_OSC                           00003FF9
__12F629                          00000001
_delayA                           00000026
_delayB                           00000027
_delayC                           00000028

Errors   :     0
Warnings :     0 reported,     0 suppressed
Messages :     3 reported,     0 suppressed

